ccollections
defaultdict
p0
(c__builtin__
int
p1
tp2
Rp3
I0
I0
sI34475
I26
sI34473
I419
sI34828
I1305
sI22544
I543
sI22546
I543
sI16231
I419
sI22548
I543
sI32790
I832
sI33816
I25
sI33818
I26
sI33820
I27
sI2078
I1022
sI28710
I900
sI17732
I27
sI32811
I28
sI17476
I463
sI17478
I463
sI32840
I420
sI616
I25
sI32842
I420
sI11959
I906
sI32844
I420
sI33869
I419
sI32846
I420
sI33871
I419
sI32848
I420
sI33873
I419
sI33875
I419
sI33877
I420
sI33879
I420
sI33881
I420
sI32209
I358
sI33883
I420
sI16229
I419
sI20189
I513
sI12315323
I0
sI11365
I324
sI32872
I420
sI32874
I420
sI11371
I324
sI32876
I420
sI11373
I324
sI32878
I420
sI11375
I324
sI32880
I25
sI2161
I25
sI24690
I27
sI11379
I324
sI24692
I27
sI11381
I324
sI24694
I27
sI11383
I324
sI24696
I419
sI32788
I324
sI30842
I31
sI11387
I893
sI24700
I419
sI11389
I324
sI24702
I419
sI33472
I27
sI11969
I833
sI11400
I324
sI16236
I420
sI11971
I906
sI34239
I27
sI1904
I26
sI28844
I902
sI28846
I902
sI28848
I902
sI28850
I902
sI23757
I547
sI4302
I1201
sI1233
I237
sI4306
I1201
sI17619
I25
sI4308
I1201
sI4310
I1201
sI32983
I25
sI26840
I27
sI32985
I25
sI26842
I27
sI32987
I25
sI32989
I25
sI17634
I26
sI17636
I27
sI37481
I1534
sI1916
I27
sI34343
I485
sI1918
I27
sI21097
I31
sI656
I28
sI23911
I547
sI19720
I485
sI17480
I463
sI4363
I28
sI19724
I485
sI19726
I485
sI37135
I1283
sI11993
I358
sI589
I25
sI29984
I963
sI29986
I963
sI37483
I1534
sI4388
I28
sI29990
I963
sI17703
I25
sI17705
I25
sI17707
I25
sI17709
I26
sI23773
I30
sI21628
I31
sI17715
I26
sI17718
I26
sI33079
I237
sI17720
I26
sI33081
I237
sI17722
I26
sI33083
I237
sI17726
I27
sI17728
I27
sI22852
I659
sI34118
I27
sI672
I31
sI17736
I27
sI17738
I27
sI33099
I420
sI17740
I27
sI11377
I834
sI12005
I358
sI34151
I27
sI23913
I659
sI23915
I547
sI23917
I659
sI23919
I659
sI33151
I419
sI33153
I419
sI33155
I419
sI33157
I419
sI11129
I31
sI17812
I25
sI16233
I419
sI34213
I27
sI33190
I25
sI34215
I27
sI34217
I27
sI34219
I900
sI34221
I900
sI34223
I900
sI17841
I25
sI17843
I26
sI594
I25
sI34229
I27
sI34231
I900
sI12729
I1202
sI3514
I659
sI12731
I380
sI3516
I324
sI12733
I1202
sI3518
I358
sI12735
I1202
sI34241
I900
sI34243
I900
sI34245
I900
sI12743
I1202
sI12745
I380
sI12747
I380
sI3532
I25
sI34253
I900
sI34255
I900
sI12753
I380
sI590
I25
sI22436
I898
sI37455
I25
sI34237
I27
sI37456
I25
sI29988
I963
sI29266
I31
sI32307
I27
sI37459
I1527
sI37460
I1527
sI35683
I1305
sI28352
I883
sI22442
I540
sI17918
I27
sI17920
I27
sI17922
I26
sI17924
I25
sI17926
I25
sI17928
I25
sI17930
I25
sI17932
I25
sI34317
I1305
sI22446
I540
sI37457
I1527
sI16227
I419
sI34328
I513
sI22448
I540
sI34339
I485
sI34341
I485
sI34225
I27
sI34457
I27
sI34345
I485
sI3628
I659
sI32305
I27
sI34227
I27
sI32309
I27
sI32207
I324
sI32311
I27
sI22452
I541
sI19722
I485
sI29248
I25
sI2998
I28
sI582
I25
sI583
I25
sI584
I25
sI585
I25
sI586
I25
sI587
I25
sI588
I237
sI37453
I25
sI37454
I25
sI591
I25
sI592
I25
sI593
I25
sI37458
I1527
sI595
I25
sI596
I237
sI597
I25
sI598
I25
sI599
I25
sI600
I25
sI601
I237
sI602
I25
sI603
I25
sI605
I25
sI606
I237
sI607
I25
sI608
I25
sI609
I25
sI34235
I900
sI613
I25
sI614
I25
sI615
I237
sI37480
I1534
sI617
I237
sI618
I25
sI619
I25
sI620
I26
sI621
I26
sI622
I26
sI623
I26
sI624
I26
sI625
I26
sI626
I26
sI627
I26
sI628
I26
sI629
I26
sI630
I26
sI631
I26
sI632
I26
sI633
I26
sI634
I26
sI635
I26
sI37482
I1534
sI638
I27
sI639
I27
sI640
I27
sI641
I27
sI642
I27
sI643
I27
sI644
I27
sI645
I27
sI9862
I237
sI648
I28
sI649
I28
sI650
I28
sI651
I28
sI652
I28
sI653
I28
sI654
I28
sI655
I28
sI29328
I31
sI657
I28
sI29330
I31
sI29332
I31
sI29334
I31
sI29336
I26
sI29337
I26
sI34459
I27
sI29340
I26
sI20125
I906
sI670
I29
sI671
I30
sI29344
I26
sI24688
I27
sI11938
I27
sI27299
I31
sI11940
I25
sI27301
I31
sI11942
I25
sI27303
I31
sI27305
I31
sI34247
I27
sI3756
I419
sI34477
I358
sI12034
I834
sI34479
I358
sI34257
I900
sI33395
I833
sI3764
I30
sI11957
I833
sI3766
I25
sI34249
I27
sI3768
I25
sI11961
I906
sI11963
I833
sI33468
I25
sI11965
I833
sI33470
I26
sI33397
I830
sI34496
I31
sI19744
I28
sI34251
I27
sI11978
I832
sI22460
I541
sI11985
I832
sI11987
I832
sI11989
I832
sI20183
I513
sI20185
I513
sI20187
I513
sI24698
I419
sI11999
I358
sI12003
I358
sI37604
I1538
sI37605
I1538
sI37606
I1538
sI37607
I1538
sI33513
I31
sI12011
I358
sI12013
I894
sI12015
I358
sI12017
I894
sI12019
I358
sI9854
I237
sI12023
I358
sI28606
I941
sI12032
I834
sI34562
I1305
sI11011
I26
sI12036
I324
sI12038
I834
sI11393
I324
sI12042
I324
sI11019
I25
sI12044
I324
sI9858
I237
sI33553
I26
sI2834
I324
sI2836
I358
sI9860
I237
sI11567
I30
sI34590
I26
sI1902
I25
sI11995
I894
sI17713
I26
sI2863
I28
sI34441
I27
sI12021
I894
sI34443
I25
sI22464
I541
sI34445
I26
sI33623
I27
sI33625
I27
sI33627
I27
sI33629
I27
sI33631
I27
sI33633
I27
sI33635
I27
sI33637
I27
sI33639
I26
sI1896
I25
sI33641
I26
sI1898
I25
sI33643
I26
sI1900
I25
sI33645
I26
sI16238
I420
sI33647
I26
sI16240
I420
sI33649
I26
sI16242
I420
sI33651
I26
sI33653
I26
sI33655
I25
sI1912
I27
sI33657
I25
sI1914
I27
sI33659
I25
sI11132
I31
sI33661
I25
sI11134
I31
sI33663
I25
sI22466
I540
sI33665
I25
sI33667
I25
sI33669
I25
sI33673
I831
sI33675
I833
sI33677
I25
sI13202
I27
sI33683
I543
sI33685
I941
sI33687
I883
sI1944
I28
sI33689
I28
sI33691
I28
sI22428
I898
sI33693
I28
sI22430
I898
sI33695
I28
sI22440
I898
sI33697
I1283
sI24483
I547
sI11172
I830
sI4005
I27
sI11174
I893
sI11176
I831
sI11178
I831
sI22444
I540
sI11182
I830
sI34461
I27
sI11184
I831
sI11186
I831
sI11188
I830
sI22456
I541
sI11190
I893
sI11192
I830
sI11194
I893
sI34463
I27
sI11196
I831
sI11198
I831
sI11200
I831
sI11936
I27
sI11202
I831
sI35779
I831
sI22468
I540
sI35781
I894
sI22470
I540
sI34465
I27
sI22474
I540
sI34471
I27
sI17360
I25
sI34467
I27
sI2006
I26
sI25560
I26
sI34469
I27
sI34233
I900
sI3751
I25
sI28659
I900
sI28661
I900
sI3753
I25
sI28665
I900
s.